target datalayout = "e-m:e-p270:32:32-p271:32:32-p272:64:64-i64:64-i128:128-f80:128-n8:16:32:64-S128"
target triple = "x86_64-unknown-linux-gnu"

%"class.std::__cxx11::basic_string" = type { %"struct.std::__cxx11::basic_string<char>::_Alloc_hider", i64, %union.anon }
%"struct.std::__cxx11::basic_string<char>::_Alloc_hider" = type { ptr }
%union.anon = type { i64, [8 x i8] }
%"class.proxygen::HTTPDirectResponseHandler" = type <{ %"class.proxygen::HTTPTransactionHandler", ptr, ptr, %"class.std::__cxx11::basic_string", i32, i8, [3 x i8] }>
%"class.proxygen::HTTPTransactionHandler" = type { %"struct.proxygen::TraceEventObserver" }
%"struct.proxygen::TraceEventObserver" = type { ptr }

; Function Attrs: mustprogress nounwind uwtable
define linkonce_odr void @_ZN8proxygen18TraceEventObserverD2Ev(ptr noundef nonnull align 8 dereferenceable(8) %this) unnamed_addr #5 comdat align 2 {
entry:
  %this.addr = alloca ptr, align 8
  store ptr %this, ptr %this.addr, align 8
  ret void
}

; Function Attrs: mustprogress nounwind uwtable
define linkonce_odr void @_ZN8proxygen18TraceEventObserverC2Ev(ptr noundef nonnull align 8 dereferenceable(8) %this) unnamed_addr #5 comdat align 2 {
entry:
  %this.addr = alloca ptr, align 8
  store ptr %this, ptr %this.addr, align 8
  %this1 = load ptr, ptr %this.addr, align 8
  store ptr getelementptr inbounds ({ [6 x ptr] }, ptr @_ZTVN8proxygen18TraceEventObserverE, i32 0, i32 0, i32 2), ptr %this1, align 8
  ret void
}

; Function Attrs: mustprogress nounwind uwtable
define linkonce_odr void @_ZN8proxygen22HTTPTransactionHandlerD2Ev(ptr noundef nonnull align 8 dereferenceable(8) %this) unnamed_addr #5 comdat align 2 {
entry:
  %this.addr = alloca ptr, align 8
  store ptr %this, ptr %this.addr, align 8
  %this1 = load ptr, ptr %this.addr, align 8
  call void @_ZN8proxygen18TraceEventObserverD2Ev(ptr noundef nonnull align 8 dereferenceable(8) %this1) #3
  ret void
}

; Function Attrs: mustprogress nounwind uwtable
define linkonce_odr void @_ZN8proxygen22HTTPTransactionHandlerC2Ev(ptr noundef nonnull align 8 dereferenceable(8) %this) unnamed_addr #5 comdat align 2 {
entry:
  %this.addr = alloca ptr, align 8
  store ptr %this, ptr %this.addr, align 8
  %this1 = load ptr, ptr %this.addr, align 8
  call void @_ZN8proxygen18TraceEventObserverC2Ev(ptr noundef nonnull align 8 dereferenceable(8) %this1) #3
  store ptr getelementptr inbounds ({ [27 x ptr] }, ptr @_ZTVN8proxygen22HTTPTransactionHandlerE, i32 0, i32 0, i32 2), ptr %this1, align 8
  ret void
}

; Function Attrs: mustprogress uwtable
define void @_ZN8proxygen25HTTPDirectResponseHandlerC2EjRKNSt7__cxx1112basic_stringIcSt11char_traitsIcESaIcEEEPKNS_13HTTPErrorPageE(ptr noundef nonnull align 8 dereferenceable(61) %this, i32 noundef %statusCode, ptr noundef nonnull align 8 dereferenceable(32) %statusMsg, ptr noundef %errorPage) unnamed_addr #4 align 2 personality ptr @__gxx_personality_v0 {
entry:
  %this.addr = alloca ptr, align 8
  %statusCode.addr = alloca i32, align 4
  %statusMsg.addr = alloca ptr, align 8
  %errorPage.addr = alloca ptr, align 8
  %exn.slot = alloca ptr, align 8
  %ehselector.slot = alloca i32, align 4
  store ptr %this, ptr %this.addr, align 8
  store i32 %statusCode, ptr %statusCode.addr, align 4
  store ptr %statusMsg, ptr %statusMsg.addr, align 8
  store ptr %errorPage, ptr %errorPage.addr, align 8
  %this1 = load ptr, ptr %this.addr, align 8
  call void @_ZN8proxygen22HTTPTransactionHandlerC2Ev(ptr noundef nonnull align 8 dereferenceable(8) %this1) #3
  store ptr getelementptr inbounds ({ [27 x ptr] }, ptr @_ZTVN8proxygen25HTTPDirectResponseHandlerE, i32 0, i32 0, i32 2), ptr %this1, align 8
  %txn_ = getelementptr inbounds %"class.proxygen::HTTPDirectResponseHandler", ptr %this1, i32 0, i32 1
  store ptr null, ptr %txn_, align 8
  %errorPage_ = getelementptr inbounds %"class.proxygen::HTTPDirectResponseHandler", ptr %this1, i32 0, i32 2
  %0 = load ptr, ptr %errorPage.addr, align 8
  store ptr %0, ptr %errorPage_, align 8
  %statusMessage_ = getelementptr inbounds %"class.proxygen::HTTPDirectResponseHandler", ptr %this1, i32 0, i32 3
  %1 = load ptr, ptr %statusMsg.addr, align 8
  invoke void @_ZNSt7__cxx1112basic_stringIcSt11char_traitsIcESaIcEEC1ERKS4_(ptr noundef nonnull align 8 dereferenceable(32) %statusMessage_, ptr noundef nonnull align 8 dereferenceable(32) %1)
          to label %invoke.cont unwind label %lpad

invoke.cont:                                      ; preds = %entry
  %statusCode_ = getelementptr inbounds %"class.proxygen::HTTPDirectResponseHandler", ptr %this1, i32 0, i32 4
  %2 = load i32, ptr %statusCode.addr, align 4
  store i32 %2, ptr %statusCode_, align 8
  %headersSent_ = getelementptr inbounds %"class.proxygen::HTTPDirectResponseHandler", ptr %this1, i32 0, i32 5
  %bf.load = load i8, ptr %headersSent_, align 4
  %bf.clear = and i8 %bf.load, -2
  %bf.set = or i8 %bf.clear, 0
  store i8 %bf.set, ptr %headersSent_, align 4
  %eomSent_ = getelementptr inbounds %"class.proxygen::HTTPDirectResponseHandler", ptr %this1, i32 0, i32 5
  %bf.load2 = load i8, ptr %eomSent_, align 4
  %bf.clear3 = and i8 %bf.load2, -3
  %bf.set4 = or i8 %bf.clear3, 0
  store i8 %bf.set4, ptr %eomSent_, align 4
  %forceConnectionClose_ = getelementptr inbounds %"class.proxygen::HTTPDirectResponseHandler", ptr %this1, i32 0, i32 5
  %bf.load5 = load i8, ptr %forceConnectionClose_, align 4
  %bf.clear6 = and i8 %bf.load5, -5
  %bf.set7 = or i8 %bf.clear6, 4
  store i8 %bf.set7, ptr %forceConnectionClose_, align 4
  ret void

lpad:                                             ; preds = %entry
  %3 = landingpad { ptr, i32 }
          cleanup
  %4 = extractvalue { ptr, i32 } %3, 0
  store ptr %4, ptr %exn.slot, align 8
  %5 = extractvalue { ptr, i32 } %3, 1
  store i32 %5, ptr %ehselector.slot, align 4
  call void @_ZN8proxygen22HTTPTransactionHandlerD2Ev(ptr noundef nonnull align 8 dereferenceable(8) %this1) #3
  br label %eh.resume

eh.resume:                                        ; preds = %lpad
  %exn = load ptr, ptr %exn.slot, align 8
  %sel = load i32, ptr %ehselector.slot, align 4
  %lpad.val = insertvalue { ptr, i32 } poison, ptr %exn, 0
  %lpad.val8 = insertvalue { ptr, i32 } %lpad.val, i32 %sel, 1
  resume { ptr, i32 } %lpad.val8
}