; Function Attrs: mustprogress uwtable
define void @_ZN8proxygen25HTTPDirectResponseHandlerC2EjRKNSt7__cxx1112basic_stringIcSt11char_traitsIcESaIcEEEPKNS_13HTTPErrorPageE(ptr noundef nonnull align 8 dereferenceable(61) %this, i32 noundef %statusCode, ptr noundef nonnull align 8 dereferenceable(32) %statusMsg, ptr noundef %errorPage) unnamed_addr #3 align 2 personality ptr @__gxx_personality_v0 {
entry:
  store ptr getelementptr inbounds ({ [27 x ptr] }, ptr @_ZTVN8proxygen25HTTPDirectResponseHandlerE, i64 0, i32 0, i64 2), ptr %this, align 8
  %txn_ = getelementptr inbounds i8, ptr %this, i64 8
  store ptr null, ptr %txn_, align 8
  %errorPage_ = getelementptr inbounds i8, ptr %this, i64 16
  store ptr %errorPage, ptr %errorPage_, align 8
  %statusMessage_ = getelementptr inbounds i8, ptr %this, i64 24
  tail call void @_ZNSt7__cxx1112basic_stringIcSt11char_traitsIcESaIcEEC1ERKS4_(ptr noundef nonnull align 8 dereferenceable(32) %statusMessage_, ptr noundef nonnull align 8 dereferenceable(32) %statusMsg)
  %statusCode_ = getelementptr inbounds i8, ptr %this, i64 56
  store i32 %statusCode, ptr %statusCode_, align 8
  %headersSent_ = getelementptr inbounds i8, ptr %this, i64 60
  %bf.load = load i8, ptr %headersSent_, align 4
  %bf.clear6 = and i8 %bf.load, -8
  %bf.set7 = or disjoint i8 %bf.clear6, 4
  store i8 %bf.set7, ptr %headersSent_, align 4
  ret void
}